Certificate:
    Data:
        Version: 3 (0x2)
        Serial Number: 17767 (0x4567)
        Signature Algorithm: sha256WithRSAEncryption
        Issuer: C=CA, ST=AB, L=Edmonton, O=sabinek2021, CN=Keith/emailAddress=sabinek@mymacewan.ca
        Validity
            Not Before: Sep 28 03:47:57 2021 GMT
            Not After : Sep 26 03:47:57 2031 GMT
        Subject: C=CA, CN=www.sabinek2021.com
        Subject Public Key Info:
            Public Key Algorithm: rsaEncryption
                RSA Public-Key: (2048 bit)
                Modulus:
                    00:b0:2b:57:bb:f4:9b:23:2e:df:f6:a8:96:ef:23:
                    b5:d1:8b:6d:c6:75:65:b5:36:52:ae:3d:68:5f:3e:
                    ce:1c:3f:4e:da:62:c0:08:6b:1b:7a:c5:c0:d4:ea:
                    93:e1:fb:fe:39:19:e5:d8:db:0a:03:bf:4d:ed:0f:
                    b8:c0:66:7f:71:be:75:6f:1e:b2:14:4d:a6:cf:66:
                    54:c0:ae:66:5c:46:1c:12:74:f7:15:83:7c:f9:9f:
                    b2:f5:63:ee:3e:91:39:05:73:6c:58:3d:69:cf:7c:
                    84:d2:1e:7f:ff:80:3c:b9:34:64:ba:c7:11:bc:bf:
                    de:cd:7b:54:95:02:af:e3:3a:d1:07:60:a4:41:c6:
                    82:9e:98:6f:56:d4:94:c0:96:03:ec:a5:e5:32:16:
                    d8:eb:08:6c:74:5e:30:9a:35:c4:9e:eb:e8:d0:5e:
                    14:94:81:d0:58:0f:2e:e0:cd:31:b4:ae:c0:b6:e0:
                    90:ca:31:3b:5c:e5:a2:34:da:27:7b:c1:43:0a:c6:
                    01:05:60:f5:c6:90:3e:1f:21:c0:5e:44:95:cf:cc:
                    ae:f1:f5:a3:65:30:c5:46:d3:2e:f1:5c:9f:7c:7c:
                    49:89:f3:d7:6a:0c:6e:c7:d3:7e:3c:36:81:00:e5:
                    73:d2:3f:7d:03:56:34:90:17:86:a5:25:a4:fb:b5:
                    6b:1d
                Exponent: 65537 (0x10001)
        X509v3 extensions:
            X509v3 Basic Constraints: 
                CA:FALSE
            Netscape Comment: 
                OpenSSL Generated Certificate
            X509v3 Subject Key Identifier: 
                93:B4:99:5C:04:61:B6:76:BC:64:F5:86:65:C6:CC:86:1F:35:D3:B1
            X509v3 Authority Key Identifier: 
                keyid:1C:24:07:F7:C7:7B:A7:58:F9:7B:9D:10:BA:55:19:09:30:26:EC:57

            X509v3 Subject Alternative Name: 
                DNS:www.sabinek2021.com, DNS:www.sabinek2021A.com, DNS:www.sabinek2021B.com
    Signature Algorithm: sha256WithRSAEncryption
         92:41:01:a1:9f:e5:27:51:0f:57:00:b8:b0:23:ac:20:d9:81:
         ea:5b:ef:01:ff:76:0e:d5:03:dc:ce:d7:a1:27:ff:ab:40:80:
         01:d5:c0:c3:f5:7b:dc:58:30:c5:65:14:85:38:17:88:3b:bd:
         75:02:ba:00:c5:49:13:77:9c:52:8b:31:4b:64:6f:b7:9f:93:
         9a:4b:00:0f:94:d0:17:78:02:e0:98:83:19:7a:b7:d3:a2:ba:
         dd:c0:3d:3d:eb:48:5d:52:da:bc:f5:f8:50:ca:9a:32:df:0a:
         f2:e0:5d:d0:19:cf:9c:4b:fe:e5:e0:71:97:ce:96:fe:eb:cd:
         dc:64:0e:51:f8:03:cc:49:3e:75:e6:1f:ac:4e:95:40:73:6e:
         a0:0c:94:f8:f7:14:a4:af:39:57:bc:c3:5c:cd:df:c5:51:e8:
         8e:1e:73:9c:4e:df:84:4e:99:90:a1:8c:e6:8b:3f:52:43:1a:
         7c:df:1d:db:55:cb:b2:0d:51:3e:c2:ed:3f:5e:80:3d:6f:24:
         70:e4:61:65:d5:99:f2:bd:c3:b4:93:48:40:ad:ae:ba:7c:92:
         7a:0d:d1:8a:95:42:f3:70:35:ad:4a:7f:c7:81:d5:4c:8e:e3:
         8d:a7:d0:1e:46:c5:9e:16:c8:ea:31:d7:80:a8:b7:db:4a:dc:
         59:6e:45:66:7a:28:33:73:3b:94:c1:f4:38:d0:a7:bb:aa:b6:
         39:19:de:42:49:20:49:28:dd:04:14:95:79:89:6f:18:20:d1:
         f6:6f:76:bd:c0:27:8f:6f:c4:c6:2e:b0:ee:27:64:61:8a:b8:
         3d:27:5e:47:76:90:c3:e8:61:b2:73:39:5d:36:d5:83:f8:77:
         fa:0c:e6:95:b4:f4:77:a3:90:f6:d4:d5:59:40:45:cd:60:3b:
         a4:31:40:58:37:47:1a:11:cf:7b:d1:67:f3:5e:ee:67:8c:7f:
         32:b0:79:bf:29:bf:14:40:66:83:49:bb:26:03:3d:1e:cc:98:
         7d:a2:a4:a2:3e:a3:da:3f:19:93:6d:99:75:6e:9f:bd:78:e5:
         d1:2b:f1:41:44:ce:43:d4:c2:a6:7e:1c:1f:56:c3:90:09:a7:
         7b:07:31:4e:c5:d6:a7:fc:44:2e:53:89:78:4f:58:2f:7d:51:
         5f:b7:d6:8f:e7:ec:ca:35:ed:d4:88:2c:74:e6:ab:c0:89:1a:
         de:c5:30:b8:7e:54:a0:ef:b2:71:92:2a:ee:d9:11:40:09:96:
         3b:02:5a:12:04:dd:b4:6e:99:8b:c6:1c:c1:99:f5:9e:37:40:
         5e:98:92:59:a3:1d:d6:6e:35:5d:f4:19:02:75:b6:18:38:26:
         2b:b0:f3:81:be:fd:9c:53
-----BEGIN CERTIFICATE-----
MIIE6DCCAtCgAwIBAgICRWcwDQYJKoZIhvcNAQELBQAweDELMAkGA1UEBhMCQ0Ex
CzAJBgNVBAgMAkFCMREwDwYDVQQHDAhFZG1vbnRvbjEUMBIGA1UECgwLc2FiaW5l
azIwMjExDjAMBgNVBAMMBUtlaXRoMSMwIQYJKoZIhvcNAQkBFhRzYWJpbmVrQG15
bWFjZXdhbi5jYTAeFw0yMTA5MjgwMzQ3NTdaFw0zMTA5MjYwMzQ3NTdaMCsxCzAJ
BgNVBAYTAkNBMRwwGgYDVQQDDBN3d3cuc2FiaW5lazIwMjEuY29tMIIBIjANBgkq
hkiG9w0BAQEFAAOCAQ8AMIIBCgKCAQEAsCtXu/SbIy7f9qiW7yO10YttxnVltTZS
rj1oXz7OHD9O2mLACGsbesXA1OqT4fv+ORnl2NsKA79N7Q+4wGZ/cb51bx6yFE2m
z2ZUwK5mXEYcEnT3FYN8+Z+y9WPuPpE5BXNsWD1pz3yE0h5//4A8uTRkuscRvL/e
zXtUlQKv4zrRB2CkQcaCnphvVtSUwJYD7KXlMhbY6whsdF4wmjXEnuvo0F4UlIHQ
WA8u4M0xtK7AtuCQyjE7XOWiNNone8FDCsYBBWD1xpA+HyHAXkSVz8yu8fWjZTDF
RtMu8VyffHxJifPXagxux9N+PDaBAOVz0j99A1Y0kBeGpSWk+7VrHQIDAQABo4HI
MIHFMAkGA1UdEwQCMAAwLAYJYIZIAYb4QgENBB8WHU9wZW5TU0wgR2VuZXJhdGVk
IENlcnRpZmljYXRlMB0GA1UdDgQWBBSTtJlcBGG2drxk9YZlxsyGHzXTsTAfBgNV
HSMEGDAWgBQcJAf3x3unWPl7nRC6VRkJMCbsVzBKBgNVHREEQzBBghN3d3cuc2Fi
aW5lazIwMjEuY29tghR3d3cuc2FiaW5lazIwMjFBLmNvbYIUd3d3LnNhYmluZWsy
MDIxQi5jb20wDQYJKoZIhvcNAQELBQADggIBAJJBAaGf5SdRD1cAuLAjrCDZgepb
7wH/dg7VA9zO16En/6tAgAHVwMP1e9xYMMVlFIU4F4g7vXUCugDFSRN3nFKLMUtk
b7efk5pLAA+U0Bd4AuCYgxl6t9Oiut3APT3rSF1S2rz1+FDKmjLfCvLgXdAZz5xL
/uXgcZfOlv7rzdxkDlH4A8xJPnXmH6xOlUBzbqAMlPj3FKSvOVe8w1zN38VR6I4e
c5xO34ROmZChjOaLP1JDGnzfHdtVy7INUT7C7T9egD1vJHDkYWXVmfK9w7STSECt
rrp8knoN0YqVQvNwNa1Kf8eB1UyO442n0B5GxZ4WyOox14Cot9tK3FluRWZ6KDNz
O5TB9DjQp7uqtjkZ3kJJIEko3QQUlXmJbxgg0fZvdr3AJ49vxMYusO4nZGGKuD0n
Xkd2kMPoYbJzOV021YP4d/oM5pW09HejkPbU1VlARc1gO6QxQFg3RxoRz3vRZ/Ne
7meMfzKweb8pvxRAZoNJuyYDPR7MmH2ipKI+o9o/GZNtmXVun7145dEr8UFEzkPU
wqZ+HB9Ww5AJp3sHMU7F1qf8RC5TiXhPWC99UV+31o/n7Mo17dSILHTmq8CJGt7F
MLh+VKDvsnGSKu7ZEUAJljsCWhIE3bRumYvGHMGZ9Z43QF6YklmjHdZuNV30GQJ1
thg4Jiuw84G+/ZxT
-----END CERTIFICATE-----
