Certificate:
    Data:
        Version: 3 (0x2)
        Serial Number: 17769 (0x4569)
        Signature Algorithm: sha256WithRSAEncryption
        Issuer: C=CA, ST=AB, L=Edmonton, O=sabinek2021, CN=Keith/emailAddress=sabinek@mymacewan.ca
        Validity
            Not Before: Sep 29 12:50:59 2021 GMT
            Not After : Sep 27 12:50:59 2031 GMT
        Subject: C=CA, O=TD Canada Trust, CN=www.tdcanadatrust.com
        Subject Public Key Info:
            Public Key Algorithm: rsaEncryption
                RSA Public-Key: (2048 bit)
                Modulus:
                    00:db:8b:88:dd:ea:cf:58:24:b6:e1:f3:de:d0:a6:
                    c2:b1:d7:65:ab:c9:ba:64:52:9a:06:86:05:b0:33:
                    c0:ab:fb:27:6f:19:6b:4e:f6:0a:77:e1:43:81:ae:
                    38:63:4b:1b:6e:fa:7b:f3:c2:2a:b4:3f:eb:09:72:
                    d1:31:0b:0b:a0:5a:ea:5f:b5:55:da:db:da:51:f0:
                    73:b4:d2:e6:49:af:de:41:5a:4b:41:7a:08:33:f7:
                    d4:61:fa:15:c4:15:b6:8c:36:6d:cc:49:2d:07:5a:
                    a8:76:40:f0:85:4c:a9:75:00:d6:2d:9e:35:c2:b5:
                    81:bb:90:41:eb:5c:4c:85:c4:c0:f2:9d:b5:13:a7:
                    95:45:0e:ba:eb:fc:05:c1:cd:e5:ed:be:e8:55:29:
                    67:5a:5f:8c:60:60:60:6c:69:76:b7:03:5b:6f:54:
                    c3:7c:b5:d7:27:87:21:0a:ba:aa:af:51:f8:30:44:
                    c9:12:dc:49:d9:bd:40:7a:cc:bd:9c:09:8b:9a:2f:
                    f4:39:21:ce:55:9c:22:93:c4:49:d9:25:53:b1:8f:
                    38:f0:2e:6b:13:ba:55:4f:d5:e3:df:ea:60:7a:f1:
                    59:22:ea:b8:be:6e:b2:cd:71:a1:99:4a:e0:2a:5f:
                    58:e3:f7:cb:86:83:cf:e1:41:05:25:71:aa:30:5c:
                    e9:91
                Exponent: 65537 (0x10001)
        X509v3 extensions:
            X509v3 Basic Constraints: 
                CA:FALSE
            Netscape Comment: 
                OpenSSL Generated Certificate
            X509v3 Subject Key Identifier: 
                F9:18:5F:3E:86:E0:52:7A:96:36:28:64:0B:79:DD:4F:E2:ED:BD:6A
            X509v3 Authority Key Identifier: 
                keyid:1C:24:07:F7:C7:7B:A7:58:F9:7B:9D:10:BA:55:19:09:30:26:EC:57

    Signature Algorithm: sha256WithRSAEncryption
         96:2b:30:6d:0d:ca:24:f2:4f:27:af:4f:8d:e6:af:1a:54:c0:
         1b:7c:69:46:98:59:fc:cd:d6:d7:6e:90:dd:ec:15:76:48:96:
         b8:80:3c:4f:a6:27:fc:f6:19:ed:f0:12:ee:4e:0a:98:db:06:
         47:a3:a3:27:e8:df:73:2c:75:0d:8f:d1:4c:3e:b5:a8:7f:84:
         49:5b:14:4b:2f:dd:03:68:e4:59:b4:c3:cd:1d:a9:e9:a6:35:
         2e:bb:fd:3d:8b:9e:2d:b6:ac:8f:ce:af:76:c5:63:be:1b:01:
         06:4c:4c:6c:44:25:55:5f:36:50:cd:8a:4b:ca:16:32:5d:5c:
         da:e3:8e:4a:6f:2d:c2:45:58:09:4b:d7:21:fb:82:a2:16:a9:
         fa:06:2f:d4:46:a9:31:22:7d:5d:b1:5b:73:a3:89:b4:28:36:
         09:49:77:ee:06:da:e4:62:c1:a3:89:93:e9:43:27:9f:b1:48:
         ed:7e:10:04:f2:e1:d4:4b:89:7f:c4:04:e9:f5:71:0f:34:94:
         b4:42:d0:ea:9f:5b:a1:83:22:69:95:e1:aa:71:e2:8f:ed:59:
         dc:2a:e2:84:78:31:ad:1c:45:a4:14:09:63:dc:8e:c0:3b:a7:
         e5:dd:f3:43:a4:c4:51:33:b4:2a:c9:7f:10:f9:3d:88:96:a3:
         83:58:a8:fd:f8:2a:44:87:9d:cd:c6:99:6f:0c:f7:91:39:ff:
         3d:7a:a0:81:e8:fa:b7:37:a3:a8:9d:e1:93:7b:1e:ca:21:be:
         3a:c9:4f:ec:67:00:45:35:f2:00:58:da:94:66:ed:b4:5a:c8:
         65:d3:cc:9b:65:79:71:1d:7e:e2:8b:9d:b9:c0:c6:11:c4:62:
         6e:84:6a:fe:46:e0:4f:8f:a0:3f:a7:a1:bd:bb:68:09:76:3a:
         4d:09:3d:79:13:b2:a8:58:96:19:ad:d4:c3:13:6a:5d:32:bb:
         29:b1:63:a8:0a:fa:ff:ca:57:81:c7:99:f7:62:07:09:ca:19:
         92:5a:3a:93:71:04:b6:49:6b:d3:f6:85:7b:2d:a9:d7:c5:6b:
         ad:4a:7a:31:00:c0:ea:e0:5a:6a:08:ca:71:02:91:52:38:a2:
         83:c4:ff:ff:ea:24:bc:e0:57:ff:3d:ce:8e:c6:b6:46:a3:e6:
         9c:7a:cc:7e:50:00:41:95:7e:46:f0:d3:27:61:1e:fd:c5:fa:
         b3:21:49:6a:b7:0c:53:6e:37:9d:71:a2:df:de:50:8c:9d:d3:
         d9:ba:36:3b:30:d5:70:55:b6:ff:06:7f:2a:39:93:2a:f0:96:
         d1:36:d7:8b:6c:1e:2f:fa:87:5a:44:2b:a2:53:8f:4a:5b:ef:
         46:2b:18:24:d0:b7:d1:d0
-----BEGIN CERTIFICATE-----
MIIEtjCCAp6gAwIBAgICRWkwDQYJKoZIhvcNAQELBQAweDELMAkGA1UEBhMCQ0Ex
CzAJBgNVBAgMAkFCMREwDwYDVQQHDAhFZG1vbnRvbjEUMBIGA1UECgwLc2FiaW5l
azIwMjExDjAMBgNVBAMMBUtlaXRoMSMwIQYJKoZIhvcNAQkBFhRzYWJpbmVrQG15
bWFjZXdhbi5jYTAeFw0yMTA5MjkxMjUwNTlaFw0zMTA5MjcxMjUwNTlaMEcxCzAJ
BgNVBAYTAkNBMRgwFgYDVQQKDA9URCBDYW5hZGEgVHJ1c3QxHjAcBgNVBAMMFXd3
dy50ZGNhbmFkYXRydXN0LmNvbTCCASIwDQYJKoZIhvcNAQEBBQADggEPADCCAQoC
ggEBANuLiN3qz1gktuHz3tCmwrHXZavJumRSmgaGBbAzwKv7J28Za072CnfhQ4Gu
OGNLG276e/PCKrQ/6wly0TELC6Ba6l+1Vdrb2lHwc7TS5kmv3kFaS0F6CDP31GH6
FcQVtow2bcxJLQdaqHZA8IVMqXUA1i2eNcK1gbuQQetcTIXEwPKdtROnlUUOuuv8
BcHN5e2+6FUpZ1pfjGBgYGxpdrcDW29Uw3y11yeHIQq6qq9R+DBEyRLcSdm9QHrM
vZwJi5ov9DkhzlWcIpPESdklU7GPOPAuaxO6VU/V49/qYHrxWSLquL5uss1xoZlK
4CpfWOP3y4aDz+FBBSVxqjBc6ZECAwEAAaN7MHkwCQYDVR0TBAIwADAsBglghkgB
hvhCAQ0EHxYdT3BlblNTTCBHZW5lcmF0ZWQgQ2VydGlmaWNhdGUwHQYDVR0OBBYE
FPkYXz6G4FJ6ljYoZAt53U/i7b1qMB8GA1UdIwQYMBaAFBwkB/fHe6dY+XudELpV
GQkwJuxXMA0GCSqGSIb3DQEBCwUAA4ICAQCWKzBtDcok8k8nr0+N5q8aVMAbfGlG
mFn8zdbXbpDd7BV2SJa4gDxPpif89hnt8BLuTgqY2wZHo6Mn6N9zLHUNj9FMPrWo
f4RJWxRLL90DaORZtMPNHanppjUuu/09i54ttqyPzq92xWO+GwEGTExsRCVVXzZQ
zYpLyhYyXVza445Kby3CRVgJS9ch+4KiFqn6Bi/URqkxIn1dsVtzo4m0KDYJSXfu
BtrkYsGjiZPpQyefsUjtfhAE8uHUS4l/xATp9XEPNJS0QtDqn1uhgyJpleGqceKP
7VncKuKEeDGtHEWkFAlj3I7AO6fl3fNDpMRRM7QqyX8Q+T2IlqODWKj9+CpEh53N
xplvDPeROf89eqCB6Pq3N6OoneGTex7KIb46yU/sZwBFNfIAWNqUZu20Wshl08yb
ZXlxHX7ii525wMYRxGJuhGr+RuBPj6A/p6G9u2gJdjpNCT15E7KoWJYZrdTDE2pd
MrspsWOoCvr/yleBx5n3YgcJyhmSWjqTcQS2SWvT9oV7LanXxWutSnoxAMDq4Fpq
CMpxApFSOKKDxP//6iS84Ff/Pc6OxrZGo+acesx+UABBlX5G8NMnYR79xfqzIUlq
twxTbjedcaLf3lCMndPZujY7MNVwVbb/Bn8qOZMq8JbRNteLbB4v+odaRCuiU49K
W+9GKxgk0LfR0A==
-----END CERTIFICATE-----
