Certificate:
    Data:
        Version: 3 (0x2)
        Serial Number: 17768 (0x4568)
        Signature Algorithm: sha256WithRSAEncryption
        Issuer: C=CA, ST=AB, L=Edmonton, O=sabinek2021, CN=Keith/emailAddress=sabinek@mymacewan.ca
        Validity
            Not Before: Sep 28 05:25:30 2021 GMT
            Not After : Sep 26 05:25:30 2031 GMT
        Subject: C=CA, CN=www.sabinek2021.com
        Subject Public Key Info:
            Public Key Algorithm: rsaEncryption
                RSA Public-Key: (2048 bit)
                Modulus:
                    00:b0:2b:57:bb:f4:9b:23:2e:df:f6:a8:96:ef:23:
                    b5:d1:8b:6d:c6:75:65:b5:36:52:ae:3d:68:5f:3e:
                    ce:1c:3f:4e:da:62:c0:08:6b:1b:7a:c5:c0:d4:ea:
                    93:e1:fb:fe:39:19:e5:d8:db:0a:03:bf:4d:ed:0f:
                    b8:c0:66:7f:71:be:75:6f:1e:b2:14:4d:a6:cf:66:
                    54:c0:ae:66:5c:46:1c:12:74:f7:15:83:7c:f9:9f:
                    b2:f5:63:ee:3e:91:39:05:73:6c:58:3d:69:cf:7c:
                    84:d2:1e:7f:ff:80:3c:b9:34:64:ba:c7:11:bc:bf:
                    de:cd:7b:54:95:02:af:e3:3a:d1:07:60:a4:41:c6:
                    82:9e:98:6f:56:d4:94:c0:96:03:ec:a5:e5:32:16:
                    d8:eb:08:6c:74:5e:30:9a:35:c4:9e:eb:e8:d0:5e:
                    14:94:81:d0:58:0f:2e:e0:cd:31:b4:ae:c0:b6:e0:
                    90:ca:31:3b:5c:e5:a2:34:da:27:7b:c1:43:0a:c6:
                    01:05:60:f5:c6:90:3e:1f:21:c0:5e:44:95:cf:cc:
                    ae:f1:f5:a3:65:30:c5:46:d3:2e:f1:5c:9f:7c:7c:
                    49:89:f3:d7:6a:0c:6e:c7:d3:7e:3c:36:81:00:e5:
                    73:d2:3f:7d:03:56:34:90:17:86:a5:25:a4:fb:b5:
                    6b:1d
                Exponent: 65537 (0x10001)
        X509v3 extensions:
            X509v3 Basic Constraints: 
                CA:FALSE
            Netscape Comment: 
                OpenSSL Generated Certificate
            X509v3 Subject Key Identifier: 
                93:B4:99:5C:04:61:B6:76:BC:64:F5:86:65:C6:CC:86:1F:35:D3:B1
            X509v3 Authority Key Identifier: 
                keyid:1C:24:07:F7:C7:7B:A7:58:F9:7B:9D:10:BA:55:19:09:30:26:EC:57

            X509v3 Subject Alternative Name: 
                DNS:www.sabinek2021.com, DNS:www.sabinek2021A.com, DNS:www.sabinek2021B.com
    Signature Algorithm: sha256WithRSAEncryption
         20:7f:77:ba:74:6c:85:bc:2c:1e:ac:94:02:d3:df:00:79:91:
         b5:d6:6c:f1:f5:da:48:5f:89:93:e2:85:c4:a1:19:56:c5:37:
         1c:43:26:c5:a7:91:a3:1f:7b:9f:16:a5:c1:43:59:9f:97:f1:
         08:bc:09:25:66:a3:25:e7:f6:1e:61:46:fc:02:18:0f:3b:fc:
         64:89:73:c2:ab:f7:92:a3:dc:23:7c:3b:2c:20:14:7e:b6:1f:
         0d:6b:ff:d0:e7:f2:45:2a:6b:5b:f6:3d:2e:3e:89:77:5c:41:
         8c:82:d1:9d:80:02:3e:87:54:97:19:64:7c:63:19:e6:60:a6:
         19:f4:61:12:69:69:a1:db:4f:5a:e1:1a:49:ef:c2:b4:59:4b:
         5a:2f:3d:32:78:40:19:fd:3c:7a:86:75:55:73:a0:9f:84:83:
         b5:fc:7a:4d:34:d5:8f:b3:e2:01:e1:02:7c:5d:6b:c7:5b:f8:
         d9:3f:cb:1e:dd:41:24:99:31:56:4f:30:db:ee:0f:3e:53:e3:
         12:5e:bb:28:82:d6:80:b2:f4:44:95:a9:b6:bb:35:3f:40:be:
         05:82:7f:d4:89:18:43:bb:fb:d9:e3:f7:90:93:77:ac:33:df:
         61:21:d6:b8:3b:6a:f5:40:fe:fe:df:63:68:81:dd:dd:fb:18:
         bc:a8:a9:bd:f7:58:2e:47:b3:2c:90:dd:50:dd:26:c4:fc:58:
         76:bd:a3:83:07:bc:7b:c9:9e:e0:cd:cd:cf:f9:5e:e1:71:48:
         bd:d2:80:b6:2b:3e:98:e1:27:2e:12:00:8c:f2:b9:bf:c6:df:
         a6:f5:eb:1f:d2:e7:fe:8a:c6:fe:f8:2e:ac:25:85:ff:91:b1:
         b9:df:15:d5:8b:8d:e7:38:10:ac:c6:7a:25:39:41:30:14:e9:
         39:c1:ea:7a:83:85:21:ec:3a:aa:2c:5f:a7:36:57:de:5f:6c:
         7e:2d:3f:10:7a:c2:3f:e4:20:c2:81:0f:d3:a5:c5:1b:69:02:
         ef:bf:eb:ba:ca:d0:20:48:b6:f9:39:65:d2:9e:a5:48:06:07:
         7b:85:f8:91:e6:3d:01:65:c5:13:ec:ce:67:b1:99:b7:78:92:
         2c:2e:16:fe:2f:23:f2:00:67:06:64:88:ea:98:54:46:41:50:
         63:b2:07:22:5a:b6:d2:c7:1b:7b:f1:0d:48:81:b8:de:6a:2d:
         9a:47:5a:82:09:a8:b1:e5:7b:5b:26:93:79:d2:01:29:cb:61:
         cf:03:4e:23:8e:6a:1d:d0:70:42:a5:6c:4e:fc:8b:27:0a:3f:
         64:b2:c4:55:40:54:78:5b:ef:57:24:7f:61:44:7d:e9:14:83:
         72:5b:97:92:78:8d:de:91
-----BEGIN CERTIFICATE-----
MIIE6DCCAtCgAwIBAgICRWgwDQYJKoZIhvcNAQELBQAweDELMAkGA1UEBhMCQ0Ex
CzAJBgNVBAgMAkFCMREwDwYDVQQHDAhFZG1vbnRvbjEUMBIGA1UECgwLc2FiaW5l
azIwMjExDjAMBgNVBAMMBUtlaXRoMSMwIQYJKoZIhvcNAQkBFhRzYWJpbmVrQG15
bWFjZXdhbi5jYTAeFw0yMTA5MjgwNTI1MzBaFw0zMTA5MjYwNTI1MzBaMCsxCzAJ
BgNVBAYTAkNBMRwwGgYDVQQDDBN3d3cuc2FiaW5lazIwMjEuY29tMIIBIjANBgkq
hkiG9w0BAQEFAAOCAQ8AMIIBCgKCAQEAsCtXu/SbIy7f9qiW7yO10YttxnVltTZS
rj1oXz7OHD9O2mLACGsbesXA1OqT4fv+ORnl2NsKA79N7Q+4wGZ/cb51bx6yFE2m
z2ZUwK5mXEYcEnT3FYN8+Z+y9WPuPpE5BXNsWD1pz3yE0h5//4A8uTRkuscRvL/e
zXtUlQKv4zrRB2CkQcaCnphvVtSUwJYD7KXlMhbY6whsdF4wmjXEnuvo0F4UlIHQ
WA8u4M0xtK7AtuCQyjE7XOWiNNone8FDCsYBBWD1xpA+HyHAXkSVz8yu8fWjZTDF
RtMu8VyffHxJifPXagxux9N+PDaBAOVz0j99A1Y0kBeGpSWk+7VrHQIDAQABo4HI
MIHFMAkGA1UdEwQCMAAwLAYJYIZIAYb4QgENBB8WHU9wZW5TU0wgR2VuZXJhdGVk
IENlcnRpZmljYXRlMB0GA1UdDgQWBBSTtJlcBGG2drxk9YZlxsyGHzXTsTAfBgNV
HSMEGDAWgBQcJAf3x3unWPl7nRC6VRkJMCbsVzBKBgNVHREEQzBBghN3d3cuc2Fi
aW5lazIwMjEuY29tghR3d3cuc2FiaW5lazIwMjFBLmNvbYIUd3d3LnNhYmluZWsy
MDIxQi5jb20wDQYJKoZIhvcNAQELBQADggIBACB/d7p0bIW8LB6slALT3wB5kbXW
bPH12khfiZPihcShGVbFNxxDJsWnkaMfe58WpcFDWZ+X8Qi8CSVmoyXn9h5hRvwC
GA87/GSJc8Kr95Kj3CN8OywgFH62Hw1r/9Dn8kUqa1v2PS4+iXdcQYyC0Z2AAj6H
VJcZZHxjGeZgphn0YRJpaaHbT1rhGknvwrRZS1ovPTJ4QBn9PHqGdVVzoJ+Eg7X8
ek001Y+z4gHhAnxda8db+Nk/yx7dQSSZMVZPMNvuDz5T4xJeuyiC1oCy9ESVqba7
NT9AvgWCf9SJGEO7+9nj95CTd6wz32Eh1rg7avVA/v7fY2iB3d37GLyoqb33WC5H
syyQ3VDdJsT8WHa9o4MHvHvJnuDNzc/5XuFxSL3SgLYrPpjhJy4SAIzyub/G36b1
6x/S5/6Kxv74Lqwlhf+RsbnfFdWLjec4EKzGeiU5QTAU6TnB6nqDhSHsOqosX6c2
V95fbH4tPxB6wj/kIMKBD9OlxRtpAu+/67rK0CBItvk5ZdKepUgGB3uF+JHmPQFl
xRPszmexmbd4kiwuFv4vI/IAZwZkiOqYVEZBUGOyByJattLHG3vxDUiBuN5qLZpH
WoIJqLHle1smk3nSASnLYc8DTiOOah3QcEKlbE78iycKP2SyxFVAVHhb71ckf2FE
fekUg3Jbl5J4jd6R
-----END CERTIFICATE-----
